Certificate:
    Data:
        Version: 3 (0x2)
        Serial Number: 1 (0x1)
    Signature Algorithm: sha256WithRSAEncryption
        Issuer: CN=Local Mojolicious Cert Provider, ST=Denial, C=IE/emailAddress=mail@example.com, O=Cyberdyne Inc., OU=Clusters
        Validity
            Not Before: Aug 24 12:52:10 2019 GMT
            Not After : Aug 22 12:52:10 2024 GMT
        Subject: CN=sample.host, ST=Bliss, C=IE/emailAddress=mail@example.com, O=Cyberdyne Inc., OU=Clusters
        Subject Public Key Info:
            Public Key Algorithm: rsaEncryption
                Public-Key: (2048 bit)
                Modulus:
                    00:d7:6a:d9:33:fa:53:db:18:ef:d5:24:bb:2a:b6:
                    37:a4:36:cd:f0:d1:89:c8:0d:c0:a1:70:2c:03:39:
                    92:2f:71:21:7b:50:f2:02:03:17:73:75:cb:47:50:
                    6a:f0:54:a6:66:db:b5:2c:a3:ba:84:7b:e6:b6:ce:
                    e2:79:2d:20:66:52:d5:6d:43:3c:1e:a6:a4:55:bd:
                    b2:e0:21:64:f8:a2:73:59:8e:f7:38:93:32:7e:86:
                    a3:ff:2e:04:35:8d:17:79:b7:de:70:56:b0:2a:70:
                    1e:af:ec:56:9f:54:0c:9e:7d:98:7f:7c:8f:18:53:
                    fd:e3:e7:8a:55:1a:3c:b7:f1:f5:59:f9:75:cb:42:
                    9a:af:aa:df:78:8c:a0:1b:a2:67:fb:11:f0:81:01:
                    9d:95:f3:53:8c:27:57:f9:b1:c2:0c:3a:86:56:6e:
                    c4:e2:45:c2:ce:6f:a6:2a:45:37:f5:41:07:f1:e5:
                    bf:cc:d8:c0:80:24:2f:ca:59:1f:27:2e:ae:55:15:
                    a8:24:30:7e:ab:75:08:f2:d3:34:8f:45:3a:9d:34:
                    67:97:fd:fd:ea:5b:86:01:ee:0d:fd:56:ee:92:30:
                    7f:2c:89:61:28:3a:62:f9:fa:4c:36:46:33:39:d3:
                    be:8d:fa:57:f3:cf:fb:57:bc:36:ec:9c:67:4d:f2:
                    be:11
                Exponent: 65537 (0x10001)
        X509v3 extensions:
            X509v3 Basic Constraints: 
                CA:FALSE
            X509v3 Key Usage: 
                Digital Signature, Non Repudiation, Key Encipherment
    Signature Algorithm: sha256WithRSAEncryption
         3d:ab:dc:5d:73:85:f2:63:e1:61:85:b1:ca:76:81:70:4d:5c:
         6b:e8:3d:27:22:6b:d1:2f:90:ef:c3:6d:57:6e:95:2a:f8:36:
         76:87:f5:be:6f:33:ed:b3:ac:34:1b:9d:6e:76:4d:e4:2e:99:
         74:cf:24:44:8b:bf:2f:5c:06:eb:86:c2:a8:68:2a:74:0c:b1:
         d2:1e:70:29:ce:af:cb:80:cc:d6:05:78:ec:e2:45:b1:7d:c4:
         e5:32:23:cb:11:7c:dc:1d:f1:20:1e:27:cf:3c:d0:c4:57:c0:
         69:2b:5b:a7:ec:ce:00:52:99:b5:7b:5f:d7:7c:24:e0:8e:00:
         23:25:41:ad:07:97:f8:85:44:cc:08:36:9b:bd:28:26:e5:ea:
         d8:4f:bb:11:20:dc:c3:1c:54:1e:49:2f:f2:bb:74:5a:d8:ff:
         9b:8b:16:ec:00:7d:39:85:b6:ad:99:cc:5d:0e:de:c9:f4:1b:
         58:4d:a1:3a:91:f1:02:83:98:de:b2:d1:0e:2d:a7:19:9f:05:
         de:9a:97:4d:d5:73:f6:f6:49:f7:f8:8c:97:c3:b6:0a:e6:45:
         3f:d5:84:1e:a5:ba:52:9d:ad:fe:07:fe:ae:3a:02:2a:7d:48:
         80:91:4f:60:1b:77:98:2e:9e:b7:0b:96:8c:cb:0b:1a:22:1e:
         97:26:28:11
-----BEGIN CERTIFICATE-----
MIIDrDCCApSgAwIBAgIBATANBgkqhkiG9w0BAQsFADCBlTEoMCYGA1UEAwwfTG9j
YWwgTW9qb2xpY2lvdXMgQ2VydCBQcm92aWRlcjEPMA0GA1UECAwGRGVuaWFsMQsw
CQYDVQQGEwJJRTEfMB0GCSqGSIb3DQEJARYQbWFpbEBleGFtcGxlLmNvbTEXMBUG
A1UECgwOQ3liZXJkeW5lIEluYy4xETAPBgNVBAsMCENsdXN0ZXJzMB4XDTE5MDgy
NDEyNTIxMFoXDTI0MDgyMjEyNTIxMFowgYAxFDASBgNVBAMMC3NhbXBsZS5ob3N0
MQ4wDAYDVQQIDAVCbGlzczELMAkGA1UEBhMCSUUxHzAdBgkqhkiG9w0BCQEWEG1h
aWxAZXhhbXBsZS5jb20xFzAVBgNVBAoMDkN5YmVyZHluZSBJbmMuMREwDwYDVQQL
DAhDbHVzdGVyczCCASIwDQYJKoZIhvcNAQEBBQADggEPADCCAQoCggEBANdq2TP6
U9sY79Ukuyq2N6Q2zfDRicgNwKFwLAM5ki9xIXtQ8gIDF3N1y0dQavBUpmbbtSyj
uoR75rbO4nktIGZS1W1DPB6mpFW9suAhZPiic1mO9ziTMn6Go/8uBDWNF3m33nBW
sCpwHq/sVp9UDJ59mH98jxhT/ePnilUaPLfx9Vn5dctCmq+q33iMoBuiZ/sR8IEB
nZXzU4wnV/mxwgw6hlZuxOJFws5vpipFN/VBB/Hlv8zYwIAkL8pZHycurlUVqCQw
fqt1CPLTNI9FOp00Z5f9/epbhgHuDf1W7pIwfyyJYSg6Yvn6TDZGMznTvo36V/PP
+1e8NuycZ03yvhECAwEAAaMaMBgwCQYDVR0TBAIwADALBgNVHQ8EBAMCBeAwDQYJ
KoZIhvcNAQELBQADggEBAD2r3F1zhfJj4WGFscp2gXBNXGvoPScia9EvkO/DbVdu
lSr4NnaH9b5vM+2zrDQbnW52TeQumXTPJESLvy9cBuuGwqhoKnQMsdIecCnOr8uA
zNYFeOziRbF9xOUyI8sRfNwd8SAeJ8880MRXwGkrW6fszgBSmbV7X9d8JOCOACMl
Qa0Hl/iFRMwINpu9KCbl6thPuxEg3MMcVB5JL/K7dFrY/5uLFuwAfTmFtq2ZzF0O
3sn0G1hNoTqR8QKDmN6y0Q4tpxmfBd6al03Vc/b2Sff4jJfDtgrmRT/VhB6lulKd
rf4H/q46Aip9SICRT2Abd5gunrcLlozLCxoiHpcmKBE=
-----END CERTIFICATE-----
