Certificate:
    Data:
        Version: 3 (0x2)
        Serial Number: 4 (0x4)
    Signature Algorithm: sha256WithRSAEncryption
        Issuer: CN=Local Mojolicious Cert Provider, ST=Denial, C=IE/emailAddress=mail@example.com, O=Cyberdyne Inc., OU=Clusters
        Validity
            Not Before: Aug 25 12:31:08 2019 GMT
            Not After : Aug 23 12:31:08 2024 GMT
        Subject: CN=unauthorised.net, ST=Bliss, C=IE/emailAddress=mail@example.com, O=Cyberdyne Inc., OU=Clusters
        Subject Public Key Info:
            Public Key Algorithm: rsaEncryption
                Public-Key: (2048 bit)
                Modulus:
                    00:de:bb:31:87:b3:a4:5b:d0:26:1a:ce:61:a7:f7:
                    1e:d8:64:99:40:e1:02:f8:5c:08:8b:6a:a4:f4:16:
                    93:d2:a2:b8:31:dd:ad:cc:ec:e1:19:e1:1e:db:e1:
                    02:b4:17:22:19:b8:16:c0:5e:f5:35:52:e1:f5:ae:
                    b3:c2:8b:92:ea:9b:ef:48:a6:17:c0:bc:f1:fe:96:
                    3f:c2:0c:11:53:9b:70:24:a2:74:16:85:f2:32:6e:
                    12:4b:49:ff:08:bd:d3:7c:0b:95:d5:b2:2a:ac:69:
                    6a:1b:6e:88:55:28:65:68:a8:da:18:b0:86:3e:c6:
                    de:c9:01:f3:35:3b:af:d1:28:ab:c0:f8:1c:8b:65:
                    90:34:a2:4a:25:02:43:e5:1a:f6:51:9e:34:26:3f:
                    fb:ea:13:c8:f4:52:e7:d4:91:3f:0d:1e:9a:ce:79:
                    45:11:e3:6c:2f:5c:51:a4:f5:4d:f1:d9:38:34:ef:
                    2a:aa:d6:11:29:ce:33:0b:9b:99:e3:43:e1:7c:dc:
                    ef:12:a7:a1:62:46:a2:07:d8:d2:af:3d:a3:21:33:
                    53:42:a7:56:de:ed:b9:ee:f2:9f:13:9b:0d:e6:a5:
                    6f:1c:7b:8c:e4:83:fc:3d:73:14:b7:01:c1:2d:20:
                    9a:7e:60:41:18:4d:b5:1f:1b:fc:d8:b2:aa:95:4d:
                    24:8b
                Exponent: 65537 (0x10001)
        X509v3 extensions:
            X509v3 Basic Constraints: 
                CA:FALSE
            X509v3 Key Usage: 
                Digital Signature, Non Repudiation, Key Encipherment
    Signature Algorithm: sha256WithRSAEncryption
         9a:04:bc:1f:6a:7c:06:52:83:3b:7d:28:ad:e3:cd:d9:9d:b8:
         9a:ac:e0:27:d7:dd:10:bb:be:9c:a4:2a:36:fa:44:a6:72:0c:
         85:ee:46:8c:b4:6a:35:39:2f:7a:56:ed:87:eb:bf:47:81:42:
         3e:f1:b3:4e:72:0b:18:6e:7d:1a:0a:58:c8:cf:05:15:fd:7f:
         84:be:22:0f:9f:fd:48:ca:bf:b2:df:87:ae:0b:b3:24:83:a4:
         ad:43:87:ee:fc:56:b3:36:ca:e5:5e:80:0c:62:ed:b8:1f:38:
         3d:a9:cf:94:6d:3f:cd:a3:df:3e:9d:1f:7d:89:1c:b1:f0:aa:
         c8:e3:f0:b5:66:f9:c6:f3:66:ac:56:eb:3f:35:e6:48:d7:d0:
         3c:75:73:41:3d:37:2a:c2:44:04:ef:b2:fb:f0:17:2d:04:c0:
         2d:f8:5c:5d:0a:73:fe:0b:a6:bf:33:8c:7b:fb:ba:05:0f:05:
         c3:10:07:47:cd:15:47:b8:8d:e5:df:50:01:16:f4:83:46:1e:
         3a:de:29:47:4f:e9:b6:88:75:6a:e8:9f:fe:98:62:f3:e5:49:
         d0:7a:20:4d:f4:9f:e5:81:47:f9:ac:df:95:5d:9b:a4:04:25:
         e9:f9:8a:d5:cd:c3:b9:42:85:22:ca:f6:02:8f:b7:2b:38:93:
         e6:a8:53:6d
-----BEGIN CERTIFICATE-----
MIIDsTCCApmgAwIBAgIBBDANBgkqhkiG9w0BAQsFADCBlTEoMCYGA1UEAwwfTG9j
YWwgTW9qb2xpY2lvdXMgQ2VydCBQcm92aWRlcjEPMA0GA1UECAwGRGVuaWFsMQsw
CQYDVQQGEwJJRTEfMB0GCSqGSIb3DQEJARYQbWFpbEBleGFtcGxlLmNvbTEXMBUG
A1UECgwOQ3liZXJkeW5lIEluYy4xETAPBgNVBAsMCENsdXN0ZXJzMB4XDTE5MDgy
NTEyMzEwOFoXDTI0MDgyMzEyMzEwOFowgYUxGTAXBgNVBAMMEHVuYXV0aG9yaXNl
ZC5uZXQxDjAMBgNVBAgMBUJsaXNzMQswCQYDVQQGEwJJRTEfMB0GCSqGSIb3DQEJ
ARYQbWFpbEBleGFtcGxlLmNvbTEXMBUGA1UECgwOQ3liZXJkeW5lIEluYy4xETAP
BgNVBAsMCENsdXN0ZXJzMIIBIjANBgkqhkiG9w0BAQEFAAOCAQ8AMIIBCgKCAQEA
3rsxh7OkW9AmGs5hp/ce2GSZQOEC+FwIi2qk9BaT0qK4Md2tzOzhGeEe2+ECtBci
GbgWwF71NVLh9a6zwouS6pvvSKYXwLzx/pY/wgwRU5twJKJ0FoXyMm4SS0n/CL3T
fAuV1bIqrGlqG26IVShlaKjaGLCGPsbeyQHzNTuv0SirwPgci2WQNKJKJQJD5Rr2
UZ40Jj/76hPI9FLn1JE/DR6aznlFEeNsL1xRpPVN8dk4NO8qqtYRKc4zC5uZ40Ph
fNzvEqehYkaiB9jSrz2jITNTQqdW3u257vKfE5sN5qVvHHuM5IP8PXMUtwHBLSCa
fmBBGE21Hxv82LKqlU0kiwIDAQABoxowGDAJBgNVHRMEAjAAMAsGA1UdDwQEAwIF
4DANBgkqhkiG9w0BAQsFAAOCAQEAmgS8H2p8BlKDO30orePN2Z24mqzgJ9fdELu+
nKQqNvpEpnIMhe5GjLRqNTkvelbth+u/R4FCPvGzTnILGG59GgpYyM8FFf1/hL4i
D5/9SMq/st+HrguzJIOkrUOH7vxWszbK5V6ADGLtuB84PanPlG0/zaPfPp0ffYkc
sfCqyOPwtWb5xvNmrFbrPzXmSNfQPHVzQT03KsJEBO+y+/AXLQTALfhcXQpz/gum
vzOMe/u6BQ8FwxAHR80VR7iN5d9QARb0g0YeOt4pR0/ptoh1auif/phi8+VJ0Hog
TfSf5YFH+azflV2bpAQl6fmK1c3DuUKFIsr2Ao+3KziT5qhTbQ==
-----END CERTIFICATE-----
