Certificate:
    Data:
        Version: 3 (0x2)
        Serial Number: 3 (0x3)
    Signature Algorithm: sha256WithRSAEncryption
        Issuer: CN=Local Mojolicious Cert Provider, ST=Denial, C=IE/emailAddress=mail@example.com, O=Cyberdyne Inc., OU=Clusters
        Validity
            Not Before: Aug 24 13:04:29 2019 GMT
            Not After : Aug 22 13:04:29 2024 GMT
        Subject: CN=localhost.lan, ST=Bliss, C=IE/emailAddress=mail@example.com, O=Cyberdyne Inc., OU=Clusters
        Subject Public Key Info:
            Public Key Algorithm: rsaEncryption
                Public-Key: (2048 bit)
                Modulus:
                    00:cc:3a:40:1c:f0:41:31:92:dd:a9:3a:d7:7b:8d:
                    69:a0:cc:81:33:ff:48:ef:f7:c1:8a:0d:4d:2e:99:
                    84:3d:90:38:a4:fc:2c:06:93:eb:95:88:cc:86:93:
                    e3:3d:8e:a9:3b:24:aa:12:71:55:94:77:9a:4a:19:
                    76:e9:a6:38:3f:32:91:87:fa:b7:6c:ca:ca:bc:69:
                    24:b4:fd:89:54:88:92:0f:d6:c4:76:8d:57:b5:ba:
                    ea:98:81:fd:31:23:e1:43:4f:10:db:97:a3:72:2d:
                    77:22:7e:dd:f7:7a:b1:85:b2:ac:08:66:80:69:34:
                    6c:78:15:c4:f1:e2:c1:14:08:4c:51:05:aa:2e:61:
                    8b:7e:3a:40:da:bc:ed:a6:e9:c2:d5:c4:4c:c7:fe:
                    2a:2d:2e:f3:01:63:99:d4:68:8d:24:8d:e1:ee:cb:
                    30:d2:e9:ef:35:fa:92:a6:e0:de:0a:4c:a4:41:84:
                    8a:3f:98:90:3b:ba:fd:c6:04:03:2e:51:e8:89:33:
                    4b:24:26:f0:04:bf:a9:e1:d0:ff:90:b2:85:e0:74:
                    64:bf:10:39:f2:1f:c9:c2:65:b4:76:60:69:ed:dd:
                    b9:99:94:44:2b:ee:78:fc:79:97:23:d5:e9:f4:23:
                    ba:ad:40:24:ee:aa:f7:4d:31:a5:4c:4a:dd:97:2a:
                    ef:95
                Exponent: 65537 (0x10001)
        X509v3 extensions:
            X509v3 Basic Constraints: 
                CA:FALSE
            X509v3 Key Usage: 
                Digital Signature, Non Repudiation, Key Encipherment
    Signature Algorithm: sha256WithRSAEncryption
         69:53:03:17:69:d7:d7:4f:b8:c5:d3:44:3a:9b:9c:d6:39:53:
         c8:24:9a:2b:80:81:4b:9d:1e:df:53:de:a8:d7:6d:c1:28:6f:
         0c:64:07:69:71:ab:65:ed:f4:71:7e:8b:79:7c:53:cc:26:d0:
         34:bc:19:57:01:fa:c0:df:42:28:8e:c5:a6:3d:bf:75:20:af:
         ba:27:65:b1:13:0c:57:09:93:11:50:08:3f:d5:62:3d:53:f2:
         5d:a1:2c:99:33:2a:a2:fb:9b:be:df:a5:f9:b2:77:95:92:c1:
         6d:94:b4:61:4f:16:8d:d5:e8:a6:47:63:78:d9:23:68:90:24:
         f5:ea:a0:5a:d1:f4:8b:f9:8c:65:ee:dc:5f:28:0d:b4:4d:36:
         34:37:1b:1f:6f:ff:44:ae:d0:3a:c6:e7:7e:2a:53:7b:33:d9:
         bd:b1:3a:ce:0d:8e:70:3b:3d:15:ef:57:b5:32:be:37:5e:5a:
         32:be:c9:80:ea:52:a8:1c:76:34:9d:c9:26:f6:70:12:94:e4:
         c8:1e:32:1d:df:a1:7c:51:e7:7b:4d:59:83:8f:d8:98:33:94:
         8b:2d:8a:46:a6:7d:44:6c:ff:52:ab:59:46:65:0a:c6:10:9b:
         3b:37:06:2b:c6:5f:3c:f0:3e:c4:5c:5a:1b:3c:8a:4c:91:e1:
         df:b7:dc:bb
-----BEGIN CERTIFICATE-----
MIIDrjCCApagAwIBAgIBAzANBgkqhkiG9w0BAQsFADCBlTEoMCYGA1UEAwwfTG9j
YWwgTW9qb2xpY2lvdXMgQ2VydCBQcm92aWRlcjEPMA0GA1UECAwGRGVuaWFsMQsw
CQYDVQQGEwJJRTEfMB0GCSqGSIb3DQEJARYQbWFpbEBleGFtcGxlLmNvbTEXMBUG
A1UECgwOQ3liZXJkeW5lIEluYy4xETAPBgNVBAsMCENsdXN0ZXJzMB4XDTE5MDgy
NDEzMDQyOVoXDTI0MDgyMjEzMDQyOVowgYIxFjAUBgNVBAMMDWxvY2FsaG9zdC5s
YW4xDjAMBgNVBAgMBUJsaXNzMQswCQYDVQQGEwJJRTEfMB0GCSqGSIb3DQEJARYQ
bWFpbEBleGFtcGxlLmNvbTEXMBUGA1UECgwOQ3liZXJkeW5lIEluYy4xETAPBgNV
BAsMCENsdXN0ZXJzMIIBIjANBgkqhkiG9w0BAQEFAAOCAQ8AMIIBCgKCAQEAzDpA
HPBBMZLdqTrXe41poMyBM/9I7/fBig1NLpmEPZA4pPwsBpPrlYjMhpPjPY6pOySq
EnFVlHeaShl26aY4PzKRh/q3bMrKvGkktP2JVIiSD9bEdo1XtbrqmIH9MSPhQ08Q
25ejci13In7d93qxhbKsCGaAaTRseBXE8eLBFAhMUQWqLmGLfjpA2rztpunC1cRM
x/4qLS7zAWOZ1GiNJI3h7ssw0unvNfqSpuDeCkykQYSKP5iQO7r9xgQDLlHoiTNL
JCbwBL+p4dD/kLKF4HRkvxA58h/JwmW0dmBp7d25mZREK+54/HmXI9Xp9CO6rUAk
7qr3TTGlTErdlyrvlQIDAQABoxowGDAJBgNVHRMEAjAAMAsGA1UdDwQEAwIF4DAN
BgkqhkiG9w0BAQsFAAOCAQEAaVMDF2nX10+4xdNEOpuc1jlTyCSaK4CBS50e31Pe
qNdtwShvDGQHaXGrZe30cX6LeXxTzCbQNLwZVwH6wN9CKI7Fpj2/dSCvuidlsRMM
VwmTEVAIP9ViPVPyXaEsmTMqovubvt+l+bJ3lZLBbZS0YU8WjdXopkdjeNkjaJAk
9eqgWtH0i/mMZe7cXygNtE02NDcbH2//RK7QOsbnfipTezPZvbE6zg2OcDs9Fe9X
tTK+N15aMr7JgOpSqBx2NJ3JJvZwEpTkyB4yHd+hfFHne01Zg4/YmDOUiy2KRqZ9
RGz/UqtZRmUKxhCbOzcGK8ZfPPA+xFxaGzyKTJHh37fcuw==
-----END CERTIFICATE-----
