Certificate:
    Data:
        Version: 3 (0x2)
        Serial Number: 2 (0x2)
    Signature Algorithm: sha256WithRSAEncryption
        Issuer: CN=Local Mojolicious Cert Provider, ST=Denial, C=IE/emailAddress=mail@example.com, O=Cyberdyne Inc., OU=Clusters
        Validity
            Not Before: Aug 24 13:02:18 2019 GMT
            Not After : Aug 22 13:02:18 2024 GMT
        Subject: CN=authserver.lan, ST=Bliss, C=IE/emailAddress=mail@example.com, O=Cyberdyne Inc., OU=Clusters
        Subject Public Key Info:
            Public Key Algorithm: rsaEncryption
                Public-Key: (2048 bit)
                Modulus:
                    00:d7:e5:2b:88:e6:e0:8c:d2:3c:cd:3b:76:f9:bd:
                    11:af:26:58:66:fc:73:4a:18:a6:08:e7:fb:89:9a:
                    7f:6f:3c:95:ee:f0:f4:80:78:b9:5d:b2:91:4a:84:
                    25:b0:c4:6a:a7:16:c7:8a:57:55:3b:91:4f:fd:01:
                    05:a1:9b:90:f7:83:0b:e2:2b:b6:3d:dd:9a:9f:6f:
                    6b:8e:24:ed:e3:70:ea:01:54:40:db:dc:a9:e8:48:
                    ef:91:70:3d:bb:31:5d:de:80:fe:bc:7a:c7:e2:d1:
                    86:3a:e1:02:8d:9a:90:3a:00:a0:a8:7b:f7:66:58:
                    c4:94:fa:3e:bb:a7:10:97:ea:0f:42:b2:b3:26:23:
                    64:6f:4b:8b:9d:41:56:82:ac:31:ec:96:b4:f6:e1:
                    aa:ea:87:f6:6e:ec:1b:ad:94:45:82:15:34:09:a5:
                    a4:22:8b:0b:1e:93:35:34:ba:81:a8:3b:87:d1:41:
                    7a:88:d5:db:f1:8f:7f:d7:1a:00:21:c0:74:4d:67:
                    a7:9c:b1:e3:75:f5:29:f5:98:2a:c9:3d:80:43:40:
                    0b:e6:c1:dd:5f:6d:d1:f7:0e:08:8c:a5:f8:f5:b3:
                    58:94:6f:54:33:b1:ce:e3:03:1a:0f:d1:58:7b:4b:
                    89:e8:fe:30:2b:88:e2:f7:2c:a0:c3:4b:c9:5d:88:
                    3a:e5
                Exponent: 65537 (0x10001)
        X509v3 extensions:
            X509v3 Basic Constraints: 
                CA:FALSE
            X509v3 Key Usage: 
                Digital Signature, Non Repudiation, Key Encipherment
    Signature Algorithm: sha256WithRSAEncryption
         22:0f:dc:e4:c0:40:06:70:32:a9:c0:3a:12:32:b9:57:42:30:
         ed:d1:bb:29:69:11:25:20:74:34:80:fa:52:3a:c9:d9:1a:e0:
         cd:be:df:78:2e:90:d6:6f:7f:ed:98:60:b3:fa:67:06:d7:3b:
         78:61:c6:fa:65:d8:1b:06:88:4b:a4:9c:c3:e4:37:95:36:8a:
         48:fe:0e:2f:dc:c3:01:96:2d:69:4b:89:eb:e6:4a:78:c2:37:
         44:18:be:71:35:ae:4a:f7:a5:a8:de:ad:21:81:c6:c8:5a:7c:
         a0:45:f9:58:b2:ac:d4:e9:6a:e5:a7:61:da:b1:c5:dd:ff:fd:
         89:4a:b2:14:85:81:22:05:0b:e0:99:16:e6:2c:3f:a6:51:fe:
         03:7a:58:6c:da:3d:d8:02:f8:35:bf:e0:33:6c:a7:61:84:e2:
         0a:6d:20:50:33:6f:f0:67:6f:77:0b:64:f5:9f:2f:4e:da:db:
         00:04:63:8a:f0:aa:f1:65:8a:13:4a:30:f5:3c:71:86:3c:8d:
         a6:9b:27:90:26:b4:d0:6f:7e:18:10:8f:af:9f:68:88:57:c6:
         df:3a:58:8e:fa:ce:b4:60:31:54:18:90:cf:e5:0e:90:54:77:
         2f:a3:ec:cb:47:db:31:31:e8:61:e6:dc:86:fc:11:96:46:e6:
         c9:ef:1b:b7
-----BEGIN CERTIFICATE-----
MIIDrzCCApegAwIBAgIBAjANBgkqhkiG9w0BAQsFADCBlTEoMCYGA1UEAwwfTG9j
YWwgTW9qb2xpY2lvdXMgQ2VydCBQcm92aWRlcjEPMA0GA1UECAwGRGVuaWFsMQsw
CQYDVQQGEwJJRTEfMB0GCSqGSIb3DQEJARYQbWFpbEBleGFtcGxlLmNvbTEXMBUG
A1UECgwOQ3liZXJkeW5lIEluYy4xETAPBgNVBAsMCENsdXN0ZXJzMB4XDTE5MDgy
NDEzMDIxOFoXDTI0MDgyMjEzMDIxOFowgYMxFzAVBgNVBAMMDmF1dGhzZXJ2ZXIu
bGFuMQ4wDAYDVQQIDAVCbGlzczELMAkGA1UEBhMCSUUxHzAdBgkqhkiG9w0BCQEW
EG1haWxAZXhhbXBsZS5jb20xFzAVBgNVBAoMDkN5YmVyZHluZSBJbmMuMREwDwYD
VQQLDAhDbHVzdGVyczCCASIwDQYJKoZIhvcNAQEBBQADggEPADCCAQoCggEBANfl
K4jm4IzSPM07dvm9Ea8mWGb8c0oYpgjn+4maf288le7w9IB4uV2ykUqEJbDEaqcW
x4pXVTuRT/0BBaGbkPeDC+Irtj3dmp9va44k7eNw6gFUQNvcqehI75FwPbsxXd6A
/rx6x+LRhjrhAo2akDoAoKh792ZYxJT6PrunEJfqD0KysyYjZG9Li51BVoKsMeyW
tPbhquqH9m7sG62URYIVNAmlpCKLCx6TNTS6gag7h9FBeojV2/GPf9caACHAdE1n
p5yx43X1KfWYKsk9gENAC+bB3V9t0fcOCIyl+PWzWJRvVDOxzuMDGg/RWHtLiej+
MCuI4vcsoMNLyV2IOuUCAwEAAaMaMBgwCQYDVR0TBAIwADALBgNVHQ8EBAMCBeAw
DQYJKoZIhvcNAQELBQADggEBACIP3OTAQAZwMqnAOhIyuVdCMO3RuylpESUgdDSA
+lI6ydka4M2+33gukNZvf+2YYLP6ZwbXO3hhxvpl2BsGiEuknMPkN5U2ikj+Di/c
wwGWLWlLievmSnjCN0QYvnE1rkr3pajerSGBxshafKBF+ViyrNTpauWnYdqxxd3/
/YlKshSFgSIFC+CZFuYsP6ZR/gN6WGzaPdgC+DW/4DNsp2GE4gptIFAzb/Bnb3cL
ZPWfL07a2wAEY4rwqvFlihNKMPU8cYY8jaabJ5AmtNBvfhgQj6+faIhXxt86WI76
zrRgMVQYkM/lDpBUdy+j7MtH2zEx6GHm3Ib8EZZG5snvG7c=
-----END CERTIFICATE-----
